---
triple:          'x86_64-apple-darwin'
binary-path:     testgen_basic
relocations:
  - { offset: 0x18028, size: 0x8, addend: 0x0, symName: __ZNSt3__124__put_character_sequenceB8ne180100IcNS_11char_traitsIcEEEERNS_13basic_ostreamIT_T0_EES7_PKS4_m, symObjAddr: 0x7800, symBinAddr: 0x100008020, symSize: 0x150 }
  - { offset: 0x21900, size: 0x8, addend: 0x0, symName: __ZNSt3__1plB8ne180100IcNS_11char_traitsIcEENS_9allocatorIcEEEENS_12basic_stringIT_T0_T1_EERKS9_SB_, symObjAddr: 0x7A0, symBinAddr: 0x100001050, symSize: 0x130 }
  - { offset: 0x2201A, size: 0x8, addend: 0x0, symName: __ZNSt3__111make_uniqueB8ne180100I3MapJNS_6vectorINS_4pairINS_10unique_ptrI3VarNS_14default_deleteIS5_EEEENS4_I4ExprNS6_IS9_EEEEEENS_9allocatorISC_EEEEEEENS_11__unique_ifIT_E15__unique_singleEDpOT0_, symObjAddr: 0x950, symBinAddr: 0x100001200, symSize: 0xC0 }
  - { offset: 0x2243C, size: 0x8, addend: 0x0, symName: __ZNSt3__111make_uniqueB8ne180100I5TupleJNS_6vectorINS_10unique_ptrI4ExprNS_14default_deleteIS4_EEEENS_9allocatorIS7_EEEEEEENS_11__unique_ifIT_E15__unique_singleEDpOT0_, symObjAddr: 0xAA0, symBinAddr: 0x100001350, symSize: 0xA0 }
  - { offset: 0x24004, size: 0x8, addend: 0x0, symName: __ZNSt3__14endlB8ne180100IcNS_11char_traitsIcEEEERNS_13basic_ostreamIT_T0_EES7_, symObjAddr: 0x1000, symBinAddr: 0x1000018B0, symSize: 0x90 }
  - { offset: 0x242C8, size: 0x8, addend: 0x0, symName: __ZNSt3__127__tree_balance_after_insertB8ne180100IPNS_16__tree_node_baseIPvEEEEvT_S5_, symObjAddr: 0xA930, symBinAddr: 0x10000B050, symSize: 0x160 }
  - { offset: 0x24FBA, size: 0x8, addend: 0x0, symName: __ZNSt3__116__pad_and_outputB8ne180100IcNS_11char_traitsIcEEEENS_19ostreambuf_iteratorIT_T0_EES6_PKS4_S8_S8_RNS_8ios_baseES4_, symObjAddr: 0x7950, symBinAddr: 0x100008170, symSize: 0x160 }
  - { offset: 0x25778, size: 0x8, addend: 0x0, symName: __ZNSt3__120__throw_length_errorB8ne180100EPKc, symObjAddr: 0x7AC0, symBinAddr: 0x1000082E0, symSize: 0x50 }
  - { offset: 0x2879A, size: 0x8, addend: 0x0, symName: __ZSt28__throw_bad_array_new_lengthB8ne180100v, symObjAddr: 0x7B40, symBinAddr: 0x100008360, symSize: 0x40 }
  - { offset: 0x2E31D, size: 0x8, addend: 0x0, symName: __Z8convert1RNSt3__110unique_ptrI4ExprNS_14default_deleteIS1_EEEEP11SymbolTableRKNS_12basic_stringIcNS_11char_traitsIcEENS_9allocatorIcEEEE, symObjAddr: 0x0, symBinAddr: 0x1000008B0, symSize: 0x770 }
  - { offset: 0x30566, size: 0x8, addend: 0x0, symName: __ZNSt3__16vectorINS_10unique_ptrI4ExprNS_14default_deleteIS2_EEEENS_9allocatorIS5_EEE21__push_back_slow_pathIS5_EEPS5_OT_, symObjAddr: 0xB660, symBinAddr: 0x10000BD80, symSize: 0x220 }
  - { offset: 0x30C0B, size: 0x8, addend: 0x0, symName: __ZNSt3__112basic_stringIcNS_11char_traitsIcEENS_9allocatorIcEEE25__init_copy_ctor_externalEPKcm, symObjAddr: 0xB5D0, symBinAddr: 0x10000BCF0, symSize: 0x90 }
  - { offset: 0x30FED, size: 0x8, addend: 0x0, symName: __ZNSt3__16__treeI3VarNS_4lessIS1_EENS_9allocatorIS1_EEE4findIS1_EENS_15__tree_iteratorIS1_PNS_11__tree_nodeIS1_PvEElEERKT_, symObjAddr: 0x5FC0, symBinAddr: 0x1000067F0, symSize: 0x120 }
  - { offset: 0x31329, size: 0x8, addend: 0x0, symName: __ZNSt3__16vectorINS_4pairINS_10unique_ptrI3VarNS_14default_deleteIS3_EEEENS2_I4ExprNS4_IS7_EEEEEENS_9allocatorISA_EEE21__push_back_slow_pathISA_EEPSA_OT_, symObjAddr: 0xC740, symBinAddr: 0x10000CE00, symSize: 0x180 }
  - { offset: 0x31B9A, size: 0x8, addend: 0x0, symName: __ZNSt3__16vectorINS_4pairINS_10unique_ptrI3VarNS_14default_deleteIS3_EEEENS2_I4ExprNS4_IS7_EEEEEENS_9allocatorISA_EEED1B8ne180100Ev, symObjAddr: 0xA10, symBinAddr: 0x1000012C0, symSize: 0x90 }
  - { offset: 0x31E38, size: 0x8, addend: 0x0, symName: __ZNSt3__16vectorINS_10unique_ptrI4ExprNS_14default_deleteIS2_EEEENS_9allocatorIS5_EEED1B8ne180100Ev, symObjAddr: 0x8D0, symBinAddr: 0x100001180, symSize: 0x80 }
  - { offset: 0x32012, size: 0x8, addend: 0x0, symName: __Z8convert1RNSt3__110unique_ptrI4ExprNS_14default_deleteIS1_EEEEP11SymbolTableRKNS_12basic_stringIcNS_11char_traitsIcEENS_9allocatorIcEEEE.cold.1, symObjAddr: 0xD2A0, symBinAddr: 0x10001DA20, symSize: 0x20 }
  - { offset: 0x320C0, size: 0x8, addend: 0x0, symName: __ZN3VarD1Ev, symObjAddr: 0x770, symBinAddr: 0x100001020, symSize: 0x30 }
  - { offset: 0x324E0, size: 0x8, addend: 0x0, symName: __ZNKSt3__112basic_stringIcNS_11char_traitsIcEENS_9allocatorIcEEE20__throw_length_errorB8ne180100Ev, symObjAddr: 0x7AB0, symBinAddr: 0x1000082D0, symSize: 0x10 }
  - { offset: 0x3250A, size: 0x8, addend: 0x0, symName: __ZNSt3__120__throw_length_errorB8ne180100EPKc, symObjAddr: 0x7AC0, symBinAddr: 0x1000082E0, symSize: 0x50 }
  - { offset: 0x32E3D, size: 0x8, addend: 0x0, symName: __Z14addthedashexprRNSt3__110unique_ptrI4ExprNS_14default_deleteIS1_EEEERNS_3setINS_12basic_stringIcNS_11char_traitsIcEENS_9allocatorIcEEEENS_4lessISC_EENSA_ISC_EEEE, symObjAddr: 0xB40, symBinAddr: 0x1000013F0, symSize: 0x4C0 }
  - { offset: 0x33A9B, size: 0x8, addend: 0x0, symName: __ZNSt3__16__treeINS_12basic_stringIcNS_11char_traitsIcEENS_9allocatorIcEEEENS_4lessIS6_EENS4_IS6_EEE25__emplace_unique_key_argsIS6_JRKS6_EEENS_4pairINS_15__tree_iteratorIS6_PNS_11__tree_nodeIS6_PvEElEEbEERKT_DpOT0_, symObjAddr: 0xC8C0, symBinAddr: 0x10000CF80, symSize: 0xD0 }
  - { offset: 0x33E90, size: 0x8, addend: 0x0, symName: __Z17removethedashexprRNSt3__110unique_ptrI4ExprNS_14default_deleteIS1_EEEERNS_3setINS_12basic_stringIcNS_11char_traitsIcEENS_9allocatorIcEEEENS_4lessISC_EENSA_ISC_EEEEi, symObjAddr: 0x1090, symBinAddr: 0x100001940, symSize: 0x930 }
  - { offset: 0x364E7, size: 0x8, addend: 0x0, symName: __ZNSt3__16__treeINS_12basic_stringIcNS_11char_traitsIcEENS_9allocatorIcEEEENS_4lessIS6_EENS4_IS6_EEE4findIS6_EENS_15__tree_iteratorIS6_PNS_11__tree_nodeIS6_PvEElEERKT_, symObjAddr: 0xCAB0, symBinAddr: 0x10000D170, symSize: 0x120 }
  - { offset: 0x36802, size: 0x8, addend: 0x0, symName: __Z17removethedashexprRNSt3__110unique_ptrI4ExprNS_14default_deleteIS1_EEEERNS_3setINS_12basic_stringIcNS_11char_traitsIcEENS_9allocatorIcEEEENS_4lessISC_EENSA_ISC_EEEEi.cold.1, symObjAddr: 0xD2C0, symBinAddr: 0x10001DA40, symSize: 0x1B }
  - { offset: 0x36E11, size: 0x8, addend: 0x0, symName: __Z8makeStmtNSt3__110unique_ptrI4ExprNS_14default_deleteIS1_EEEE, symObjAddr: 0x19C0, symBinAddr: 0x100002270, symSize: 0x200 }
  - { offset: 0x3771A, size: 0x8, addend: 0x0, symName: __ZN8FuncCallD0Ev, symObjAddr: 0xAB30, symBinAddr: 0x10000B250, symSize: 0x90 }
  - { offset: 0x37EEE, size: 0x8, addend: 0x0, symName: __Z12getInputVarsRNSt3__110unique_ptrI4ExprNS_14default_deleteIS1_EEEERNS_6vectorIS4_NS_9allocatorIS4_EEEENS_12basic_stringIcNS_11char_traitsIcEENS7_IcEEEEP11SymbolTableR7TypeMapSJ_, symObjAddr: 0x1BC0, symBinAddr: 0x100002470, symSize: 0x6C0 }
  - { offset: 0x3B2F8, size: 0x8, addend: 0x0, symName: __Z7convertPK4Spec11SymbolTable7TypeMap, symObjAddr: 0x2280, symBinAddr: 0x100002B30, symSize: 0x1920 }
  - { offset: 0x432CB, size: 0x8, addend: 0x0, symName: __ZNSt3__16vectorINS_10unique_ptrI4StmtNS_14default_deleteIS2_EEEENS_9allocatorIS5_EEE21__push_back_slow_pathIS5_EEPS5_OT_, symObjAddr: 0xCEB0, symBinAddr: 0x10000D330, symSize: 0x220 }
  - { offset: 0x43AF8, size: 0x8, addend: 0x0, symName: __ZNSt3__16__treeINS_12__value_typeINS_12basic_stringIcNS_11char_traitsIcEENS_9allocatorIcEEEEP8TypeExprEENS_19__map_value_compareIS7_SA_NS_4lessIS7_EELb1EEENS5_ISA_EEE7destroyEPNS_11__tree_nodeISA_PvEE, symObjAddr: 0x7B80, symBinAddr: 0x1000083A0, symSize: 0x50 }
  - { offset: 0x43DBA, size: 0x8, addend: 0x0, symName: __ZN12PrintVisitorD1Ev, symObjAddr: 0x3BA0, symBinAddr: 0x100004450, symSize: 0x10 }
  - { offset: 0x43DE5, size: 0x8, addend: 0x0, symName: __ZNSt3__110unique_ptrI7APIcallNS_14default_deleteIS1_EEED1B8ne180100Ev, symObjAddr: 0x3BB0, symBinAddr: 0x100004460, symSize: 0x60 }
  - { offset: 0x44013, size: 0x8, addend: 0x0, symName: __ZN7TypeMapD1Ev, symObjAddr: 0x3C10, symBinAddr: 0x1000044C0, symSize: 0x40 }
  - { offset: 0x448D8, size: 0x8, addend: 0x0, symName: __Z20test_manual_examplesv, symObjAddr: 0x3C50, symBinAddr: 0x100004500, symSize: 0x820 }
  - { offset: 0x46A21, size: 0x8, addend: 0x0, symName: __ZN5Entry5startEv, symObjAddr: 0x4470, symBinAddr: 0x100004D20, symSize: 0x1840 }
  - { offset: 0x4E428, size: 0x8, addend: 0x0, symName: __ZN11SymbolTableC2ERKS_, symObjAddr: 0xB090, symBinAddr: 0x10000B7B0, symSize: 0x140 }
  - { offset: 0x4EAB8, size: 0x8, addend: 0x0, symName: __ZNSt3__16__treeI3VarNS_4lessIS1_EENS_9allocatorIS1_EEE7destroyEPNS_11__tree_nodeIS1_PvEE, symObjAddr: 0xB570, symBinAddr: 0x10000BC90, symSize: 0x40 }
  - { offset: 0x4EC3B, size: 0x8, addend: 0x0, symName: __ZN4SpecD2Ev, symObjAddr: 0xD130, symBinAddr: 0x10000D560, symSize: 0x170 }
  - { offset: 0x4F565, size: 0x8, addend: 0x0, symName: __ZN11SymbolTableD1Ev, symObjAddr: 0x5CB0, symBinAddr: 0x100006560, symSize: 0x40 }
  - { offset: 0x4F8B2, size: 0x8, addend: 0x0, symName: __ZNSt3__110unique_ptrI4SpecNS_14default_deleteIS1_EEED1B8ne180100Ev, symObjAddr: 0x5D80, symBinAddr: 0x1000065B0, symSize: 0x40 }
  - { offset: 0x4F96E, size: 0x8, addend: 0x0, symName: __ZNSt3__14pairINS_10unique_ptrI4SpecNS_14default_deleteIS2_EEEE11SymbolTableED1Ev, symObjAddr: 0x5DC0, symBinAddr: 0x1000065F0, symSize: 0x60 }
  - { offset: 0x51DA5, size: 0x8, addend: 0x0, symName: __ZNSt3__16vectorINS_10unique_ptrI8TypeExprNS_14default_deleteIS2_EEEENS_9allocatorIS5_EEE21__push_back_slow_pathIS5_EEPS5_OT_, symObjAddr: 0x9A40, symBinAddr: 0x10000A160, symSize: 0x220 }
  - { offset: 0x5244A, size: 0x8, addend: 0x0, symName: __ZNSt3__16vectorINS_10unique_ptrI4DeclNS_14default_deleteIS2_EEEENS_9allocatorIS5_EEE21__push_back_slow_pathIS5_EEPS5_OT_, symObjAddr: 0x9DA0, symBinAddr: 0x10000A4C0, symSize: 0x220 }
  - { offset: 0x52AEF, size: 0x8, addend: 0x0, symName: __ZNSt3__16vectorINS_10unique_ptrI8FuncDeclNS_14default_deleteIS2_EEEENS_9allocatorIS5_EEE21__push_back_slow_pathIS5_EEPS5_OT_, symObjAddr: 0xA5E0, symBinAddr: 0x10000AD00, symSize: 0x220 }
  - { offset: 0x5317F, size: 0x8, addend: 0x0, symName: __ZNSt3__16__treeI3VarNS_4lessIS1_EENS_9allocatorIS1_EEE12__find_equalIS1_EERPNS_16__tree_node_baseIPvEERPNS_15__tree_end_nodeISB_EERKT_, symObjAddr: 0xA810, symBinAddr: 0x10000AF30, symSize: 0x120 }
  - { offset: 0x5346B, size: 0x8, addend: 0x0, symName: __ZN13heavyexample47exampleERNSt3__16vectorINS0_10unique_ptrI3APINS0_14default_deleteIS3_EEEENS0_9allocatorIS6_EEEER11SymbolTable, symObjAddr: 0x7C50, symBinAddr: 0x100008470, symSize: 0x1B10 }
  - { offset: 0x5CC0D, size: 0x8, addend: 0x0, symName: __ZNSt3__110unique_ptrI3APINS_14default_deleteIS1_EEE5resetB8ne180100EPS1_, symObjAddr: 0xCE10, symBinAddr: 0x10000D290, symSize: 0xA0 }
  - { offset: 0x5D034, size: 0x8, addend: 0x0, symName: __ZNKSt3__114default_deleteI8FuncDeclEclB8ne180100EPS1_, symObjAddr: 0xAFC0, symBinAddr: 0x10000B6E0, symSize: 0xD0 }
  - { offset: 0x5D592, size: 0x8, addend: 0x0, symName: __ZNSt3__14pairI16HTTPResponseCodeNS_6vectorINS_10unique_ptrI8TypeExprNS_14default_deleteIS4_EEEENS_9allocatorIS7_EEEEED1Ev, symObjAddr: 0x7BD0, symBinAddr: 0x1000083F0, symSize: 0x80 }
  - { offset: 0x5D798, size: 0x8, addend: 0x0, symName: __ZN3MapD0Ev, symObjAddr: 0xBBD0, symBinAddr: 0x10000C2F0, symSize: 0xA0 }
  - { offset: 0x5DAAB, size: 0x8, addend: 0x0, symName: __ZN9TupleTypeD0Ev, symObjAddr: 0xA410, symBinAddr: 0x10000AB30, symSize: 0x90 }
  - { offset: 0x5DCF6, size: 0x8, addend: 0x0, symName: __ZN7MapTypeD0Ev, symObjAddr: 0xA230, symBinAddr: 0x10000A950, symSize: 0x60 }
  - { offset: 0x5DE89, size: 0x8, addend: 0x0, symName: __ZN9TypeConstD0Ev, symObjAddr: 0x9CA0, symBinAddr: 0x10000A3C0, symSize: 0x40 }
  - { offset: 0x5E001, size: 0x8, addend: 0x0, symName: __ZNSt3__16vectorINS_10unique_ptrI3APINS_14default_deleteIS2_EEEENS_9allocatorIS5_EEED1B8ne180100Ev, symObjAddr: 0x9760, symBinAddr: 0x100009F80, symSize: 0x70 }
  - { offset: 0x5E2EE, size: 0x8, addend: 0x0, symName: __ZNSt3__16vectorINS_10unique_ptrI8FuncDeclNS_14default_deleteIS2_EEEENS_9allocatorIS5_EEED1B8ne180100Ev, symObjAddr: 0x9850, symBinAddr: 0x100009FF0, symSize: 0x80 }
  - { offset: 0x5E4B3, size: 0x8, addend: 0x0, symName: __ZNSt3__110unique_ptrI4InitNS_14default_deleteIS1_EEED1B8ne180100Ev, symObjAddr: 0x98D0, symBinAddr: 0x10000A070, symSize: 0x50 }
  - { offset: 0x5E728, size: 0x8, addend: 0x0, symName: __ZNSt3__16vectorINS_10unique_ptrI4InitNS_14default_deleteIS2_EEEENS_9allocatorIS5_EEED1B8ne180100Ev, symObjAddr: 0x9920, symBinAddr: 0x10000A0C0, symSize: 0xA0 }
  - { offset: 0x5EBE2, size: 0x8, addend: 0x0, symName: __ZN19ExpoSECodeGeneratorD1Ev, symObjAddr: 0x5CF0, symBinAddr: 0x1000065A0, symSize: 0x10 }
  - { offset: 0x5EC31, size: 0x8, addend: 0x0, symName: _main, symObjAddr: 0x5E20, symBinAddr: 0x100006650, symSize: 0x190 }
  - { offset: 0x5F142, size: 0x8, addend: 0x0, symName: __ZN3VarD0Ev, symObjAddr: 0x60E0, symBinAddr: 0x100006910, symSize: 0x40 }
  - { offset: 0x5F2BE, size: 0x8, addend: 0x0, symName: __ZN3Var6acceptER10ASTVisitor, symObjAddr: 0x6120, symBinAddr: 0x100006950, symSize: 0x20 }
  - { offset: 0x5F310, size: 0x8, addend: 0x0, symName: __ZNK3Var5cloneEv, symObjAddr: 0x6150, symBinAddr: 0x100006970, symSize: 0xA0 }
  - { offset: 0x5F516, size: 0x8, addend: 0x0, symName: __ZN12PrintVisitorD0Ev, symObjAddr: 0x61F0, symBinAddr: 0x100006A10, symSize: 0x10 }
  - { offset: 0x5F564, size: 0x8, addend: 0x0, symName: __ZN12PrintVisitor5visitERK9TypeConst, symObjAddr: 0x6200, symBinAddr: 0x100006A20, symSize: 0xB0 }
  - { offset: 0x5F78F, size: 0x8, addend: 0x0, symName: __ZN12PrintVisitor5visitERK8FuncType, symObjAddr: 0x62B0, symBinAddr: 0x100006AD0, symSize: 0x170 }
  - { offset: 0x5FB06, size: 0x8, addend: 0x0, symName: __ZN12PrintVisitor5visitERK7MapType, symObjAddr: 0x6420, symBinAddr: 0x100006C40, symSize: 0x160 }
  - { offset: 0x5FD9A, size: 0x8, addend: 0x0, symName: __ZN12PrintVisitor5visitERK9TupleType, symObjAddr: 0x6580, symBinAddr: 0x100006DA0, symSize: 0xC0 }
  - { offset: 0x5FF6D, size: 0x8, addend: 0x0, symName: __ZN12PrintVisitor5visitERK7SetType, symObjAddr: 0x6640, symBinAddr: 0x100006E60, symSize: 0x90 }
  - { offset: 0x60083, size: 0x8, addend: 0x0, symName: __ZN12PrintVisitor5visitERK3Var, symObjAddr: 0x66D0, symBinAddr: 0x100006EF0, symSize: 0xB0 }
  - { offset: 0x60292, size: 0x8, addend: 0x0, symName: __ZN12PrintVisitor5visitERK8FuncCall, symObjAddr: 0x6780, symBinAddr: 0x100006FA0, symSize: 0xE0 }
  - { offset: 0x6052D, size: 0x8, addend: 0x0, symName: __ZN12PrintVisitor5visitERK3Num, symObjAddr: 0x6860, symBinAddr: 0x100007080, symSize: 0x90 }
  - { offset: 0x60652, size: 0x8, addend: 0x0, symName: __ZN12PrintVisitor5visitERK6String, symObjAddr: 0x68F0, symBinAddr: 0x100007110, symSize: 0xB0 }
  - { offset: 0x6080F, size: 0x8, addend: 0x0, symName: __ZN12PrintVisitor5visitERK3Set, symObjAddr: 0x69A0, symBinAddr: 0x1000071C0, symSize: 0xB0 }
  - { offset: 0x60A50, size: 0x8, addend: 0x0, symName: __ZN12PrintVisitor5visitERK3Map, symObjAddr: 0x6A50, symBinAddr: 0x100007270, symSize: 0x170 }
  - { offset: 0x60D79, size: 0x8, addend: 0x0, symName: __ZN12PrintVisitor5visitERK5Tuple, symObjAddr: 0x6BC0, symBinAddr: 0x1000073E0, symSize: 0xB0 }
  - { offset: 0x60F4C, size: 0x8, addend: 0x0, symName: __ZN12PrintVisitor5visitERK4Decl, symObjAddr: 0x6C70, symBinAddr: 0x100007490, symSize: 0xD0 }
  - { offset: 0x61178, size: 0x8, addend: 0x0, symName: __ZN12PrintVisitor5visitERK8FuncDecl, symObjAddr: 0x6D40, symBinAddr: 0x100007560, symSize: 0x1F0 }
  - { offset: 0x6168E, size: 0x8, addend: 0x0, symName: __ZN12PrintVisitor5visitERK7APIcall, symObjAddr: 0x6F30, symBinAddr: 0x100007750, symSize: 0x160 }
  - { offset: 0x6198D, size: 0x8, addend: 0x0, symName: __ZN12PrintVisitor5visitERK3API, symObjAddr: 0x7090, symBinAddr: 0x1000078B0, symSize: 0x1A0 }
  - { offset: 0x61CDE, size: 0x8, addend: 0x0, symName: __ZN12PrintVisitor5visitERK8Response, symObjAddr: 0x7230, symBinAddr: 0x100007A50, symSize: 0xE0 }
  - { offset: 0x61EC5, size: 0x8, addend: 0x0, symName: __ZN12PrintVisitor5visitERK4Init, symObjAddr: 0x7310, symBinAddr: 0x100007B30, symSize: 0xC0 }
  - { offset: 0x62252, size: 0x8, addend: 0x0, symName: __ZN12PrintVisitor5visitERK4Spec, symObjAddr: 0x73D0, symBinAddr: 0x100007BF0, symSize: 0x2B0 }
  - { offset: 0x629D4, size: 0x8, addend: 0x0, symName: __ZN12PrintVisitor5visitERK6Assign, symObjAddr: 0x7680, symBinAddr: 0x100007EA0, symSize: 0xC0 }
  - { offset: 0x62B95, size: 0x8, addend: 0x0, symName: __ZN12PrintVisitor5visitERK12FuncCallStmt, symObjAddr: 0x7740, symBinAddr: 0x100007F60, symSize: 0x60 }
  - { offset: 0x62CE2, size: 0x8, addend: 0x0, symName: __ZN12PrintVisitor5visitERK7Program, symObjAddr: 0x77A0, symBinAddr: 0x100007FC0, symSize: 0x60 }
  - { offset: 0x63128, size: 0x8, addend: 0x0, symName: __ZNSt12length_errorC1B8ne180100EPKc, symObjAddr: 0x7B10, symBinAddr: 0x100008330, symSize: 0x30 }
  - { offset: 0x63DB7, size: 0x8, addend: 0x0, symName: __ZNSt3__16vectorINS_10unique_ptrI3APINS_14default_deleteIS2_EEEENS_9allocatorIS5_EEE21__push_back_slow_pathIS5_EEPS5_OT_, symObjAddr: 0xAD90, symBinAddr: 0x10000B4B0, symSize: 0x210 }
  - { offset: 0x6443C, size: 0x8, addend: 0x0, symName: __ZNKSt3__16vectorIP11SymbolTableNS_9allocatorIS2_EEE20__throw_length_errorB8ne180100Ev, symObjAddr: 0xAFB0, symBinAddr: 0x10000B6D0, symSize: 0x10 }
  - { offset: 0x64466, size: 0x8, addend: 0x0, symName: __ZNKSt3__114default_deleteI8FuncDeclEclB8ne180100EPS1_, symObjAddr: 0xAFC0, symBinAddr: 0x10000B6E0, symSize: 0xD0 }
  - { offset: 0x646A1, size: 0x8, addend: 0x0, symName: __ZNKSt3__16vectorINS_10unique_ptrI8TypeExprNS_14default_deleteIS2_EEEENS_9allocatorIS5_EEE20__throw_length_errorB8ne180100Ev, symObjAddr: 0x9C60, symBinAddr: 0x10000A380, symSize: 0x10 }
  - { offset: 0x646CB, size: 0x8, addend: 0x0, symName: __ZN9TypeConstD1Ev, symObjAddr: 0x9C70, symBinAddr: 0x10000A390, symSize: 0x30 }
  - { offset: 0x646F2, size: 0x8, addend: 0x0, symName: __ZN9TypeConstD1Ev, symObjAddr: 0x9C70, symBinAddr: 0x10000A390, symSize: 0x30 }
  - { offset: 0x6483D, size: 0x8, addend: 0x0, symName: __ZN9TypeConst6acceptER10ASTVisitor, symObjAddr: 0x9CE0, symBinAddr: 0x10000A400, symSize: 0x20 }
  - { offset: 0x6488F, size: 0x8, addend: 0x0, symName: __ZN9TypeConst5cloneEv, symObjAddr: 0x9D00, symBinAddr: 0x10000A420, symSize: 0xA0 }
  - { offset: 0x64CC0, size: 0x8, addend: 0x0, symName: __ZNKSt3__16vectorINS_10unique_ptrI4DeclNS_14default_deleteIS2_EEEENS_9allocatorIS5_EEE20__throw_length_errorB8ne180100Ev, symObjAddr: 0x9FC0, symBinAddr: 0x10000A6E0, symSize: 0x10 }
  - { offset: 0x64CEA, size: 0x8, addend: 0x0, symName: __ZN4DeclD1Ev, symObjAddr: 0x9FD0, symBinAddr: 0x10000A6F0, symSize: 0x50 }
  - { offset: 0x64D0F, size: 0x8, addend: 0x0, symName: __ZN4DeclD1Ev, symObjAddr: 0x9FD0, symBinAddr: 0x10000A6F0, symSize: 0x50 }
  - { offset: 0x64EEF, size: 0x8, addend: 0x0, symName: __ZN4DeclD0Ev, symObjAddr: 0xA020, symBinAddr: 0x10000A740, symSize: 0x50 }
  - { offset: 0x650FC, size: 0x8, addend: 0x0, symName: __ZN4Decl6acceptER10ASTVisitor, symObjAddr: 0xA070, symBinAddr: 0x10000A790, symSize: 0x20 }
  - { offset: 0x65173, size: 0x8, addend: 0x0, symName: __ZN4Decl5cloneEv, symObjAddr: 0xA090, symBinAddr: 0x10000A7B0, symSize: 0x50 }
  - { offset: 0x65283, size: 0x8, addend: 0x0, symName: __ZN4DeclC2ERS_, symObjAddr: 0xA0E0, symBinAddr: 0x10000A800, symSize: 0xF0 }
  - { offset: 0x657D0, size: 0x8, addend: 0x0, symName: __ZN7MapTypeD1Ev, symObjAddr: 0xA1D0, symBinAddr: 0x10000A8F0, symSize: 0x60 }
  - { offset: 0x65955, size: 0x8, addend: 0x0, symName: __ZN7MapType6acceptER10ASTVisitor, symObjAddr: 0xA290, symBinAddr: 0x10000A9B0, symSize: 0x20 }
  - { offset: 0x65B32, size: 0x8, addend: 0x0, symName: __ZN7MapType5cloneEv, symObjAddr: 0xA2B0, symBinAddr: 0x10000A9D0, symSize: 0xD0 }
  - { offset: 0x6615B, size: 0x8, addend: 0x0, symName: __ZN9TupleTypeD1Ev, symObjAddr: 0xA380, symBinAddr: 0x10000AAA0, symSize: 0x90 }
  - { offset: 0x6637D, size: 0x8, addend: 0x0, symName: __ZN9TupleType6acceptER10ASTVisitor, symObjAddr: 0xA4A0, symBinAddr: 0x10000ABC0, symSize: 0x20 }
  - { offset: 0x66552, size: 0x8, addend: 0x0, symName: __ZN9TupleType5cloneEv, symObjAddr: 0xA4C0, symBinAddr: 0x10000ABE0, symSize: 0x120 }
  - { offset: 0x66D3F, size: 0x8, addend: 0x0, symName: __ZNKSt3__16vectorINS_10unique_ptrI8FuncDeclNS_14default_deleteIS2_EEEENS_9allocatorIS5_EEE20__throw_length_errorB8ne180100Ev, symObjAddr: 0xA800, symBinAddr: 0x10000AF20, symSize: 0x10 }
  - { offset: 0x66D69, size: 0x8, addend: 0x0, symName: __ZNSt3__16__treeI3VarNS_4lessIS1_EENS_9allocatorIS1_EEE12__find_equalIS1_EERPNS_16__tree_node_baseIPvEERPNS_15__tree_end_nodeISB_EERKT_, symObjAddr: 0xA810, symBinAddr: 0x10000AF30, symSize: 0x120 }
  - { offset: 0x66DCF, size: 0x8, addend: 0x0, symName: __ZN8FuncCallD1Ev, symObjAddr: 0xAA90, symBinAddr: 0x10000B1B0, symSize: 0xA0 }
  - { offset: 0x67104, size: 0x8, addend: 0x0, symName: __ZN8FuncCall6acceptER10ASTVisitor, symObjAddr: 0xABC0, symBinAddr: 0x10000B2E0, symSize: 0x20 }
  - { offset: 0x6716C, size: 0x8, addend: 0x0, symName: __ZN8FuncCall6acceptEP13ExpoSEVisitor, symObjAddr: 0xABE0, symBinAddr: 0x10000B300, symSize: 0x40 }
  - { offset: 0x67282, size: 0x8, addend: 0x0, symName: __ZNK8FuncCall5cloneEv, symObjAddr: 0xAC20, symBinAddr: 0x10000B340, symSize: 0x170 }
  - { offset: 0x67B51, size: 0x8, addend: 0x0, symName: __ZNKSt3__16vectorINS_10unique_ptrI3APINS_14default_deleteIS2_EEEENS_9allocatorIS5_EEE20__throw_length_errorB8ne180100Ev, symObjAddr: 0xAFA0, symBinAddr: 0x10000B6C0, symSize: 0x10 }
  - { offset: 0x67B7B, size: 0x8, addend: 0x0, symName: __ZNKSt3__16vectorIP11SymbolTableNS_9allocatorIS2_EEE20__throw_length_errorB8ne180100Ev, symObjAddr: 0xAFB0, symBinAddr: 0x10000B6D0, symSize: 0x10 }
  - { offset: 0x6803D, size: 0x8, addend: 0x0, symName: __ZNSt3__16__treeI3VarNS_4lessIS1_EENS_9allocatorIS1_EEE30__emplace_hint_unique_key_argsIS1_JRKS1_EEENS_4pairINS_15__tree_iteratorIS1_PNS_11__tree_nodeIS1_PvEElEEbEENS_21__tree_const_iteratorIS1_SF_lEERKT_DpOT0_, symObjAddr: 0xB1D0, symBinAddr: 0x10000B8F0, symSize: 0xF0 }
  - { offset: 0x6864E, size: 0x8, addend: 0x0, symName: __ZNSt3__16__treeI3VarNS_4lessIS1_EENS_9allocatorIS1_EEE12__find_equalIS1_EERPNS_16__tree_node_baseIPvEENS_21__tree_const_iteratorIS1_PNS_11__tree_nodeIS1_S9_EElEERPNS_15__tree_end_nodeISB_EESC_RKT_, symObjAddr: 0xB2C0, symBinAddr: 0x10000B9E0, symSize: 0x2B0 }
  - { offset: 0x68E90, size: 0x8, addend: 0x0, symName: __ZN19ExpoSECodeGeneratorD0Ev, symObjAddr: 0xB5B0, symBinAddr: 0x10000BCD0, symSize: 0x20 }
  - { offset: 0x6910F, size: 0x8, addend: 0x0, symName: __ZNKSt3__16vectorINS_10unique_ptrI4ExprNS_14default_deleteIS2_EEEENS_9allocatorIS5_EEE20__throw_length_errorB8ne180100Ev, symObjAddr: 0xB880, symBinAddr: 0x10000BFA0, symSize: 0x10 }
  - { offset: 0x69139, size: 0x8, addend: 0x0, symName: __ZN3SetD1Ev, symObjAddr: 0xB890, symBinAddr: 0x10000BFB0, symSize: 0x90 }
  - { offset: 0x69161, size: 0x8, addend: 0x0, symName: __ZN3SetD1Ev, symObjAddr: 0xB890, symBinAddr: 0x10000BFB0, symSize: 0x90 }
  - { offset: 0x69386, size: 0x8, addend: 0x0, symName: __ZN3SetD0Ev, symObjAddr: 0xB920, symBinAddr: 0x10000C040, symSize: 0x90 }
  - { offset: 0x695D5, size: 0x8, addend: 0x0, symName: __ZN3Set6acceptER10ASTVisitor, symObjAddr: 0xB9B0, symBinAddr: 0x10000C0D0, symSize: 0x20 }
  - { offset: 0x69627, size: 0x8, addend: 0x0, symName: __ZN3Set6acceptEP13ExpoSEVisitor, symObjAddr: 0xB9D0, symBinAddr: 0x10000C0F0, symSize: 0x40 }
  - { offset: 0x6986E, size: 0x8, addend: 0x0, symName: __ZNK3Set5cloneEv, symObjAddr: 0xBA10, symBinAddr: 0x10000C130, symSize: 0x120 }
  - { offset: 0x69E55, size: 0x8, addend: 0x0, symName: __ZN3MapD1Ev, symObjAddr: 0xBB30, symBinAddr: 0x10000C250, symSize: 0xA0 }
  - { offset: 0x6A13E, size: 0x8, addend: 0x0, symName: __ZN3Map6acceptER10ASTVisitor, symObjAddr: 0xBC70, symBinAddr: 0x10000C390, symSize: 0x20 }
  - { offset: 0x6A1A6, size: 0x8, addend: 0x0, symName: __ZN3Map6acceptEP13ExpoSEVisitor, symObjAddr: 0xBC90, symBinAddr: 0x10000C3B0, symSize: 0x50 }
  - { offset: 0x6A511, size: 0x8, addend: 0x0, symName: __ZNK3Map5cloneEv, symObjAddr: 0xBCE0, symBinAddr: 0x10000C400, symSize: 0x310 }
  - { offset: 0x6B4E4, size: 0x8, addend: 0x0, symName: __ZNSt3__16vectorINS_4pairINS_10unique_ptrI3VarNS_14default_deleteIS3_EEEENS2_I4ExprNS4_IS7_EEEEEENS_9allocatorISA_EEE24__emplace_back_slow_pathIJS6_S9_EEEPSA_DpOT_, symObjAddr: 0xBFF0, symBinAddr: 0x10000C710, symSize: 0x190 }
  - { offset: 0x6C066, size: 0x8, addend: 0x0, symName: __ZNKSt3__16vectorINS_4pairINS_10unique_ptrI3VarNS_14default_deleteIS3_EEEENS2_I4ExprNS4_IS7_EEEEEENS_9allocatorISA_EEE20__throw_length_errorB8ne180100Ev, symObjAddr: 0xC180, symBinAddr: 0x10000C8A0, symSize: 0x10 }
  - { offset: 0x6C090, size: 0x8, addend: 0x0, symName: __ZN5TupleD1Ev, symObjAddr: 0xC190, symBinAddr: 0x10000C8B0, symSize: 0x90 }
  - { offset: 0x6C0B8, size: 0x8, addend: 0x0, symName: __ZN5TupleD1Ev, symObjAddr: 0xC190, symBinAddr: 0x10000C8B0, symSize: 0x90 }
  - { offset: 0x6C2DD, size: 0x8, addend: 0x0, symName: __ZN5TupleD0Ev, symObjAddr: 0xC220, symBinAddr: 0x10000C940, symSize: 0x90 }
  - { offset: 0x6C52C, size: 0x8, addend: 0x0, symName: __ZN5Tuple6acceptER10ASTVisitor, symObjAddr: 0xC2B0, symBinAddr: 0x10000C9D0, symSize: 0x20 }
  - { offset: 0x6C57E, size: 0x8, addend: 0x0, symName: __ZNK5Tuple5cloneEv, symObjAddr: 0xC310, symBinAddr: 0x10000C9F0, symSize: 0x1D0 }
  - { offset: 0x6CEEC, size: 0x8, addend: 0x0, symName: __ZN12FuncCallStmtD1Ev, symObjAddr: 0xC4E0, symBinAddr: 0x10000CBC0, symSize: 0x30 }
  - { offset: 0x6CFDD, size: 0x8, addend: 0x0, symName: __ZN12FuncCallStmtD0Ev, symObjAddr: 0xC510, symBinAddr: 0x10000CBF0, symSize: 0x40 }
  - { offset: 0x6D0DD, size: 0x8, addend: 0x0, symName: __ZN12FuncCallStmt6acceptER10ASTVisitor, symObjAddr: 0xC550, symBinAddr: 0x10000CC30, symSize: 0x20 }
  - { offset: 0x6D145, size: 0x8, addend: 0x0, symName: __ZN12FuncCallStmt6acceptEP13ExpoSEVisitor, symObjAddr: 0xC570, symBinAddr: 0x10000CC50, symSize: 0x40 }
  - { offset: 0x6D1D6, size: 0x8, addend: 0x0, symName: __ZNK12FuncCallStmt5cloneEv, symObjAddr: 0xC5B0, symBinAddr: 0x10000CC90, symSize: 0xF0 }
  - { offset: 0x6D534, size: 0x8, addend: 0x0, symName: __ZN3Num6acceptER10ASTVisitor, symObjAddr: 0xC6C0, symBinAddr: 0x10000CD80, symSize: 0x20 }
  - { offset: 0x6D586, size: 0x8, addend: 0x0, symName: __ZN3Num6acceptEP13ExpoSEVisitor, symObjAddr: 0xC6E0, symBinAddr: 0x10000CDA0, symSize: 0x20 }
  - { offset: 0x6D6F4, size: 0x8, addend: 0x0, symName: __ZNK3Num5cloneEv, symObjAddr: 0xC700, symBinAddr: 0x10000CDC0, symSize: 0x40 }
  - { offset: 0x6DA65, size: 0x8, addend: 0x0, symName: __ZNSt3__16__treeINS_12basic_stringIcNS_11char_traitsIcEENS_9allocatorIcEEEENS_4lessIS6_EENS4_IS6_EEE12__find_equalIS6_EERPNS_16__tree_node_baseIPvEERPNS_15__tree_end_nodeISF_EERKT_, symObjAddr: 0xC990, symBinAddr: 0x10000D050, symSize: 0x120 }
  - { offset: 0x6E04F, size: 0x8, addend: 0x0, symName: __ZNKSt3__16vectorINS_10unique_ptrI4StmtNS_14default_deleteIS2_EEEENS_9allocatorIS5_EEE20__throw_length_errorB8ne180100Ev, symObjAddr: 0xD0D0, symBinAddr: 0x10000D550, symSize: 0x10 }
  - { offset: 0x8C1C1, size: 0x8, addend: 0x0, symName: __ZNSt3__119__throw_regex_errorB8ne180100ILNS_15regex_constants10error_typeE17EEEvv, symObjAddr: 0x4190, symBinAddr: 0x100011310, symSize: 0x50 }
  - { offset: 0x8D16E, size: 0x8, addend: 0x0, symName: __ZNSt3__119__throw_regex_errorB8ne180100ILNS_15regex_constants10error_typeE14EEEvv, symObjAddr: 0x4A50, symBinAddr: 0x100011BD0, symSize: 0x50 }
  - { offset: 0x8D358, size: 0x8, addend: 0x0, symName: __ZNSt3__119__throw_regex_errorB8ne180100ILNS_15regex_constants10error_typeE15EEEvv, symObjAddr: 0xCA30, symBinAddr: 0x100019250, symSize: 0x50 }
  - { offset: 0x8D663, size: 0x8, addend: 0x0, symName: __ZNSt3__119__throw_regex_errorB8ne180100ILNS_15regex_constants10error_typeE6EEEvv, symObjAddr: 0x5810, symBinAddr: 0x100012900, symSize: 0x50 }
  - { offset: 0x8D80C, size: 0x8, addend: 0x0, symName: __ZNSt3__119__throw_regex_errorB8ne180100ILNS_15regex_constants10error_typeE11EEEvv, symObjAddr: 0x6F10, symBinAddr: 0x100013F20, symSize: 0x50 }
  - { offset: 0x8D832, size: 0x8, addend: 0x0, symName: __ZNSt3__119__throw_regex_errorB8ne180100ILNS_15regex_constants10error_typeE3EEEvv, symObjAddr: 0x7180, symBinAddr: 0x100014120, symSize: 0x50 }
  - { offset: 0x8D876, size: 0x8, addend: 0x0, symName: __ZNSt3__119__throw_regex_errorB8ne180100ILNS_15regex_constants10error_typeE8EEEvv, symObjAddr: 0xC440, symBinAddr: 0x100018D50, symSize: 0x50 }
  - { offset: 0x8D89C, size: 0x8, addend: 0x0, symName: __ZNSt3__119__throw_regex_errorB8ne180100ILNS_15regex_constants10error_typeE7EEEvv, symObjAddr: 0xC490, symBinAddr: 0x100018DA0, symSize: 0x50 }
  - { offset: 0x8DCB1, size: 0x8, addend: 0x0, symName: __ZNSt3__119__throw_regex_errorB8ne180100ILNS_15regex_constants10error_typeE12EEEvv, symObjAddr: 0x6580, symBinAddr: 0x100013590, symSize: 0x50 }
  - { offset: 0x8DCD7, size: 0x8, addend: 0x0, symName: __ZNSt3__119__throw_regex_errorB8ne180100ILNS_15regex_constants10error_typeE16EEEvv, symObjAddr: 0x65D0, symBinAddr: 0x1000135E0, symSize: 0x50 }
  - { offset: 0x8E7B6, size: 0x8, addend: 0x0, symName: __ZNSt3__119__throw_regex_errorB8ne180100ILNS_15regex_constants10error_typeE5EEEvv, symObjAddr: 0x9C00, symBinAddr: 0x100016AC0, symSize: 0x50 }
  - { offset: 0x8E7DC, size: 0x8, addend: 0x0, symName: __ZNSt3__119__throw_regex_errorB8ne180100ILNS_15regex_constants10error_typeE4EEEvv, symObjAddr: 0x7A80, symBinAddr: 0x100014A20, symSize: 0x50 }
  - { offset: 0x8F6D7, size: 0x8, addend: 0x0, symName: __ZNSt3__119__throw_regex_errorB8ne180100ILNS_15regex_constants10error_typeE2EEEvv, symObjAddr: 0xB650, symBinAddr: 0x100018160, symSize: 0x50 }
  - { offset: 0x8F6FD, size: 0x8, addend: 0x0, symName: __ZNSt3__119__throw_regex_errorB8ne180100ILNS_15regex_constants10error_typeE1EEEvv, symObjAddr: 0xB250, symBinAddr: 0x100018110, symSize: 0x50 }
  - { offset: 0x8F75F, size: 0x8, addend: 0x0, symName: __ZNSt3__119__throw_regex_errorB8ne180100ILNS_15regex_constants10error_typeE9EEEvv, symObjAddr: 0xBF70, symBinAddr: 0x100018960, symSize: 0x50 }
  - { offset: 0x954C1, size: 0x8, addend: 0x0, symName: __ZN13CodeGeneratorC2EP13ExpoSEVisitor, symObjAddr: 0x0, symBinAddr: 0x10000D6D0, symSize: 0x20 }
  - { offset: 0x95515, size: 0x8, addend: 0x0, symName: __ZN13CodeGeneratorC1EP13ExpoSEVisitor, symObjAddr: 0x20, symBinAddr: 0x10000D6F0, symSize: 0x20 }
  - { offset: 0x95821, size: 0x8, addend: 0x0, symName: __ZN13CodeGenerator6indentENSt3__112basic_stringIcNS0_11char_traitsIcEENS0_9allocatorIcEEEES6_i, symObjAddr: 0x40, symBinAddr: 0x10000D710, symSize: 0xF0 }
  - { offset: 0x960E8, size: 0x8, addend: 0x0, symName: __ZN13ExpoSEVisitor8retrieveEv, symObjAddr: 0x260, symBinAddr: 0x10000D800, symSize: 0x120 }
  - { offset: 0x963BF, size: 0x8, addend: 0x0, symName: __ZN13ExpoSEVisitor3popERNSt3__15stackINS0_12basic_stringIcNS0_11char_traitsIcEENS0_9allocatorIcEEEENS0_5dequeIS7_NS5_IS7_EEEEEE, symObjAddr: 0x380, symBinAddr: 0x10000D920, symSize: 0x130 }
  - { offset: 0x97CED, size: 0x8, addend: 0x0, symName: __ZN13CodeGenerator12generateCodeER7Program, symObjAddr: 0x4B0, symBinAddr: 0x10000DA50, symSize: 0x810 }
  - { offset: 0x9A633, size: 0x8, addend: 0x0, symName: __ZN13ExpoSEVisitor12visitProgramER7Program, symObjAddr: 0xCC0, symBinAddr: 0x10000E260, symSize: 0x250 }
  - { offset: 0x9B0C0, size: 0x8, addend: 0x0, symName: __ZNSt3__111basic_regexIcNS_12regex_traitsIcEEEC2B8ne180100EPKcNS_15regex_constants18syntax_option_typeE, symObjAddr: 0x3DB0, symBinAddr: 0x100010F30, symSize: 0xB0 }
  - { offset: 0x9B27A, size: 0x8, addend: 0x0, symName: __ZNSt3__114regex_iteratorINS_11__wrap_iterIPKcEEcNS_12regex_traitsIcEEEC2ES4_S4_RKNS_11basic_regexIcS6_EENS_15regex_constants15match_flag_typeE, symObjAddr: 0xD660, symBinAddr: 0x100019E10, symSize: 0x120 }
  - { offset: 0x9BA0A, size: 0x8, addend: 0x0, symName: __ZNSt3__120regex_token_iteratorINS_11__wrap_iterIPKcEEcNS_12regex_traitsIcEEEppEv, symObjAddr: 0xF10, symBinAddr: 0x10000E4B0, symSize: 0x290 }
  - { offset: 0x9C209, size: 0x8, addend: 0x0, symName: __ZNKSt3__120regex_token_iteratorINS_11__wrap_iterIPKcEEcNS_12regex_traitsIcEEEeqERKS7_, symObjAddr: 0x10950, symBinAddr: 0x10001CD60, symSize: 0x140 }
  - { offset: 0x9C507, size: 0x8, addend: 0x0, symName: __ZNSt3__16vectorINS_12basic_stringIcNS_11char_traitsIcEENS_9allocatorIcEEEENS4_IS6_EEE21__push_back_slow_pathIS6_EEPS6_OT_, symObjAddr: 0x10A90, symBinAddr: 0x10001CEA0, symSize: 0x190 }
  - { offset: 0x9CB09, size: 0x8, addend: 0x0, symName: __ZNSt3__16vectorINS_12basic_stringIcNS_11char_traitsIcEENS_9allocatorIcEEEENS4_IS6_EEED1B8ne180100Ev, symObjAddr: 0x11A0, symBinAddr: 0x10000E740, symSize: 0x70 }
  - { offset: 0x9CD6F, size: 0x8, addend: 0x0, symName: __ZNSt3__120regex_token_iteratorINS_11__wrap_iterIPKcEEcNS_12regex_traitsIcEEED1Ev, symObjAddr: 0x1210, symBinAddr: 0x10000E7B0, symSize: 0x40 }
  - { offset: 0x9D074, size: 0x8, addend: 0x0, symName: __ZNSt3__111basic_regexIcNS_12regex_traitsIcEEED1Ev, symObjAddr: 0x1250, symBinAddr: 0x10000E7F0, symSize: 0x50 }
  - { offset: 0x9D340, size: 0x8, addend: 0x0, symName: __ZNSt3__15dequeINS_12basic_stringIcNS_11char_traitsIcEENS_9allocatorIcEEEENS4_IS6_EEE19__add_back_capacityEv, symObjAddr: 0x10EC0, symBinAddr: 0x10001D2D0, symSize: 0x560 }
  - { offset: 0x9E76F, size: 0x8, addend: 0x0, symName: __ZNSt3__114regex_iteratorINS_11__wrap_iterIPKcEEcNS_12regex_traitsIcEEEppEv, symObjAddr: 0x10C90, symBinAddr: 0x10001D0A0, symSize: 0x230 }
  - { offset: 0x9F1AE, size: 0x8, addend: 0x0, symName: __ZNKSt3__16vectorINS_9sub_matchINS_11__wrap_iterIPKcEEEENS_9allocatorIS6_EEE20__throw_length_errorB8ne180100Ev, symObjAddr: 0x10540, symBinAddr: 0x10001C950, symSize: 0x10 }
  - { offset: 0x9F1D8, size: 0x8, addend: 0x0, symName: __ZNKSt3__19sub_matchINS_11__wrap_iterIPKcEEE7compareB8ne180100ERKS5_, symObjAddr: 0x10550, symBinAddr: 0x10001C960, symSize: 0x400 }
  - { offset: 0x9F214, size: 0x8, addend: 0x0, symName: __ZN13ExpoSEVisitor9visitExprER4Expr, symObjAddr: 0x12A0, symBinAddr: 0x10000E840, symSize: 0x130 }
  - { offset: 0x9F422, size: 0x8, addend: 0x0, symName: __ZN13ExpoSEVisitor8visitVarER3Var, symObjAddr: 0x13D0, symBinAddr: 0x10000E970, symSize: 0x120 }
  - { offset: 0x9F984, size: 0x8, addend: 0x0, symName: __ZN13ExpoSEVisitor8visitNumER3Num, symObjAddr: 0x14F0, symBinAddr: 0x10000EA90, symSize: 0xC0 }
  - { offset: 0x9FC9D, size: 0x8, addend: 0x0, symName: __ZN13ExpoSEVisitor13visitFuncCallER8FuncCall, symObjAddr: 0x15B0, symBinAddr: 0x10000EB50, symSize: 0x1460 }
  - { offset: 0xA557F, size: 0x8, addend: 0x0, symName: __ZNSt3__16vectorINS_12basic_stringIcNS_11char_traitsIcEENS_9allocatorIcEEEENS4_IS6_EEE21__push_back_slow_pathIRKS6_EEPS6_OT_, symObjAddr: 0x119A0, symBinAddr: 0x10001D830, symSize: 0x1E3 }
  - { offset: 0xA5CB7, size: 0x8, addend: 0x0, symName: __ZN13ExpoSEVisitor8visitMapER3Map, symObjAddr: 0x2A10, symBinAddr: 0x10000FFB0, symSize: 0xA0 }
  - { offset: 0xA5E70, size: 0x8, addend: 0x0, symName: __ZN13ExpoSEVisitor8visitSetER3Set, symObjAddr: 0x2AB0, symBinAddr: 0x100010050, symSize: 0x10 }
  - { offset: 0xA5EA7, size: 0x8, addend: 0x0, symName: __ZN13ExpoSEVisitor9visitDeclER4Decl, symObjAddr: 0x2AC0, symBinAddr: 0x100010060, symSize: 0x2F0 }
  - { offset: 0xA6E6D, size: 0x8, addend: 0x0, symName: __ZN13ExpoSEVisitor17visitFuncCallStmtER12FuncCallStmt, symObjAddr: 0x2DB0, symBinAddr: 0x100010350, symSize: 0x1D0 }
  - { offset: 0xA79AA, size: 0x8, addend: 0x0, symName: __ZN13CodeGeneratorD2Ev, symObjAddr: 0x2F80, symBinAddr: 0x100010520, symSize: 0x40 }
  - { offset: 0xA7A6C, size: 0x8, addend: 0x0, symName: __ZNSt3__15dequeINS_12basic_stringIcNS_11char_traitsIcEENS_9allocatorIcEEEENS4_IS6_EEED2B8ne180100Ev, symObjAddr: 0x3800, symBinAddr: 0x100010D90, symSize: 0x1A0 }
  - { offset: 0xA8060, size: 0x8, addend: 0x0, symName: __ZN13ExpoSEVisitorD1Ev, symObjAddr: 0x2FC0, symBinAddr: 0x100010560, symSize: 0x10 }
  - { offset: 0xA8122, size: 0x8, addend: 0x0, symName: __ZN13CodeGeneratorD1Ev, symObjAddr: 0x2FD0, symBinAddr: 0x100010570, symSize: 0x40 }
  - { offset: 0xA821E, size: 0x8, addend: 0x0, symName: __ZN13CodeGeneratorD0Ev, symObjAddr: 0x3010, symBinAddr: 0x1000105B0, symSize: 0x40 }
  - { offset: 0xA8323, size: 0x8, addend: 0x0, symName: __ZN13ExpoSEVisitor9visitStmtER4Stmt, symObjAddr: 0x3050, symBinAddr: 0x1000105F0, symSize: 0x20 }
  - { offset: 0xA8374, size: 0x8, addend: 0x0, symName: __ZN13ExpoSEVisitor11visitAssignER6Assign, symObjAddr: 0x3070, symBinAddr: 0x100010610, symSize: 0x310 }
  - { offset: 0xA92C8, size: 0x8, addend: 0x0, symName: __ZN13ExpoSEVisitorD2Ev, symObjAddr: 0x3380, symBinAddr: 0x100010920, symSize: 0x10 }
  - { offset: 0xA9352, size: 0x8, addend: 0x0, symName: __ZN13ExpoSEVisitor11visitStringER6String, symObjAddr: 0x3390, symBinAddr: 0x100010930, symSize: 0xC0 }
  - { offset: 0xA95B5, size: 0x8, addend: 0x0, symName: __ZN13ExpoSEVisitor9visitInitER4Init, symObjAddr: 0x3450, symBinAddr: 0x1000109F0, symSize: 0x360 }
  - { offset: 0xAA5DB, size: 0x8, addend: 0x0, symName: __ZNSt3__110shared_ptrINS_13__empty_stateIcEEED1B8ne180100Ev, symObjAddr: 0x37C0, symBinAddr: 0x100010D50, symSize: 0x40 }
  - { offset: 0xAAC03, size: 0x8, addend: 0x0, symName: __ZNSt3__111basic_regexIcNS_12regex_traitsIcEEE7__parseIPKcEET_S7_S7_, symObjAddr: 0x3E60, symBinAddr: 0x100010FE0, symSize: 0x330 }
  - { offset: 0xABE2D, size: 0x8, addend: 0x0, symName: __ZNSt3__111basic_regexIcNS_12regex_traitsIcEEE13__parse_egrepIPKcEET_S7_S7_, symObjAddr: 0x4870, symBinAddr: 0x1000119F0, symSize: 0x1E0 }
  - { offset: 0xAC3BE, size: 0x8, addend: 0x0, symName: __ZNSt3__111basic_regexIcNS_12regex_traitsIcEEE24__parse_extended_reg_expIPKcEET_S7_S7_, symObjAddr: 0x4500, symBinAddr: 0x100011680, symSize: 0x190 }
  - { offset: 0xAC73D, size: 0x8, addend: 0x0, symName: __ZNSt3__111basic_regexIcNS_12regex_traitsIcEEE19__parse_alternativeIPKcEET_S7_S7_, symObjAddr: 0x4C70, symBinAddr: 0x100011D60, symSize: 0x90 }
  - { offset: 0xAC832, size: 0x8, addend: 0x0, symName: __ZNSt3__111basic_regexIcNS_12regex_traitsIcEEE21__parse_basic_reg_expIPKcEET_S7_S7_, symObjAddr: 0x43B0, symBinAddr: 0x100011530, symSize: 0x150 }
  - { offset: 0xACB50, size: 0x8, addend: 0x0, symName: __ZNSt3__111basic_regexIcNS_12regex_traitsIcEEE12__parse_grepIPKcEET_S7_S7_, symObjAddr: 0x4690, symBinAddr: 0x100011810, symSize: 0x1E0 }
  - { offset: 0xAD128, size: 0x8, addend: 0x0, symName: __ZNSt3__111basic_regexIcNS_12regex_traitsIcEEE16__parse_ecma_expIPKcEET_S7_S7_, symObjAddr: 0x41E0, symBinAddr: 0x100011360, symSize: 0x1D0 }
  - { offset: 0xAD592, size: 0x8, addend: 0x0, symName: __ZNSt3__111basic_regexIcNS_12regex_traitsIcEEE12__parse_termIPKcEET_S7_S7_, symObjAddr: 0x4D00, symBinAddr: 0x100011DF0, symSize: 0x80 }
  - { offset: 0xAD83A, size: 0x8, addend: 0x0, symName: __ZNSt3__111basic_regexIcNS_12regex_traitsIcEEE18__parse_nondupl_REIPKcEET_S7_S7_, symObjAddr: 0xCA80, symBinAddr: 0x1000192A0, symSize: 0x1C0 }
  - { offset: 0xADD56, size: 0x8, addend: 0x0, symName: __ZNSt3__111basic_regexIcNS_12regex_traitsIcEEE22__parse_RE_dupl_symbolIPKcEET_S7_S7_PNS_16__owns_one_stateIcEEjj, symObjAddr: 0xCC40, symBinAddr: 0x100019460, symSize: 0x240 }
  - { offset: 0xAE37F, size: 0x8, addend: 0x0, symName: __ZNSt3__111basic_regexIcNS_12regex_traitsIcEEE22__parse_ERE_expressionIPKcEET_S7_S7_, symObjAddr: 0xD060, symBinAddr: 0x100019810, symSize: 0x260 }
  - { offset: 0xAE82B, size: 0x8, addend: 0x0, symName: __ZNKSt3__111__end_stateIcE6__execERNS_7__stateIcEE, symObjAddr: 0x4AC0, symBinAddr: 0x100011C20, symSize: 0x10 }
  - { offset: 0xAE861, size: 0x8, addend: 0x0, symName: __ZNKSt3__16__nodeIcE12__exec_splitEbRNS_7__stateIcEE, symObjAddr: 0x4AD0, symBinAddr: 0x100011C30, symSize: 0x10 }
  - { offset: 0xAE8A8, size: 0x8, addend: 0x0, symName: __ZNKSt3__16__nodeIcE6__execERNS_7__stateIcEE, symObjAddr: 0x4AE0, symBinAddr: 0x100011C40, symSize: 0x10 }
  - { offset: 0xAE8F4, size: 0x8, addend: 0x0, symName: __ZNSt3__120__shared_ptr_pointerIPNS_13__empty_stateIcEENS_10shared_ptrIS2_E27__shared_ptr_default_deleteIS2_S2_EENS_9allocatorIS2_EEED1Ev, symObjAddr: 0x4AF0, symBinAddr: 0x100011C50, symSize: 0x10 }
  - { offset: 0xAE94C, size: 0x8, addend: 0x0, symName: __ZNSt3__120__shared_ptr_pointerIPNS_13__empty_stateIcEENS_10shared_ptrIS2_E27__shared_ptr_default_deleteIS2_S2_EENS_9allocatorIS2_EEED0Ev, symObjAddr: 0x4B00, symBinAddr: 0x100011C60, symSize: 0x20 }
  - { offset: 0xAE9B1, size: 0x8, addend: 0x0, symName: __ZNSt3__120__shared_ptr_pointerIPNS_13__empty_stateIcEENS_10shared_ptrIS2_E27__shared_ptr_default_deleteIS2_S2_EENS_9allocatorIS2_EEE16__on_zero_sharedEv, symObjAddr: 0x4B20, symBinAddr: 0x100011C80, symSize: 0x20 }
  - { offset: 0xAEA47, size: 0x8, addend: 0x0, symName: __ZNKSt3__120__shared_ptr_pointerIPNS_13__empty_stateIcEENS_10shared_ptrIS2_E27__shared_ptr_default_deleteIS2_S2_EENS_9allocatorIS2_EEE13__get_deleterERKSt9type_info, symObjAddr: 0x4B40, symBinAddr: 0x100011CA0, symSize: 0x20 }
  - { offset: 0xAEB0F, size: 0x8, addend: 0x0, symName: __ZNSt3__120__shared_ptr_pointerIPNS_13__empty_stateIcEENS_10shared_ptrIS2_E27__shared_ptr_default_deleteIS2_S2_EENS_9allocatorIS2_EEE21__on_zero_shared_weakEv, symObjAddr: 0x4B60, symBinAddr: 0x100011CC0, symSize: 0x10 }
  - { offset: 0xAEBDD, size: 0x8, addend: 0x0, symName: __ZNSt3__113__empty_stateIcED1Ev, symObjAddr: 0x4B70, symBinAddr: 0x100011CD0, symSize: 0x30 }
  - { offset: 0xAEC49, size: 0x8, addend: 0x0, symName: __ZNSt3__113__empty_stateIcED0Ev, symObjAddr: 0x4BA0, symBinAddr: 0x100011D00, symSize: 0x40 }
  - { offset: 0xAECE9, size: 0x8, addend: 0x0, symName: __ZNKSt3__113__empty_stateIcE6__execERNS_7__stateIcEE, symObjAddr: 0x4BE0, symBinAddr: 0x100011D40, symSize: 0x20 }
  - { offset: 0xAED9B, size: 0x8, addend: 0x0, symName: __ZNSt3__111basic_regexIcNS_12regex_traitsIcEEE23__parse_ERE_dupl_symbolIPKcEET_S7_S7_PNS_16__owns_one_stateIcEEjj, symObjAddr: 0x5340, symBinAddr: 0x100012430, symSize: 0x3B0 }
  - { offset: 0xAF2E8, size: 0x8, addend: 0x0, symName: __ZNSt3__111basic_regexIcNS_12regex_traitsIcEEE17__parse_assertionIPKcEET_S7_S7_, symObjAddr: 0x4D80, symBinAddr: 0x100011E70, symSize: 0x290 }
  - { offset: 0xAF8AA, size: 0x8, addend: 0x0, symName: __ZNSt3__111basic_regexIcNS_12regex_traitsIcEEE12__parse_atomIPKcEET_S7_S7_, symObjAddr: 0x5010, symBinAddr: 0x100012100, symSize: 0x330 }
  - { offset: 0xAFE4F, size: 0x8, addend: 0x0, symName: __ZNSt3__111basic_regexIcNS_12regex_traitsIcEEEC1B8ne180100Ev, symObjAddr: 0x56F0, symBinAddr: 0x1000127E0, symSize: 0x60 }
  - { offset: 0xAFF16, size: 0x8, addend: 0x0, symName: __ZNSt3__111basic_regexIcNS_12regex_traitsIcEEE16__push_lookaheadERKS3_bj, symObjAddr: 0x5750, symBinAddr: 0x100012840, symSize: 0xC0 }
  - { offset: 0xB035D, size: 0x8, addend: 0x0, symName: __ZNSt3__111basic_regexIcNS_12regex_traitsIcEEE26__parse_bracket_expressionIPKcEET_S7_S7_, symObjAddr: 0x6DD0, symBinAddr: 0x100013DE0, symSize: 0x140 }
  - { offset: 0xB0552, size: 0x8, addend: 0x0, symName: __ZNSt3__111basic_regexIcNS_12regex_traitsIcEEE22__parse_decimal_escapeIPKcEET_S7_S7_, symObjAddr: 0x71D0, symBinAddr: 0x100014170, symSize: 0x90 }
  - { offset: 0xB05E9, size: 0x8, addend: 0x0, symName: __ZNSt3__111basic_regexIcNS_12regex_traitsIcEEE30__parse_character_class_escapeIPKcEET_S7_S7_, symObjAddr: 0x7260, symBinAddr: 0x100014200, symSize: 0x2E0 }
  - { offset: 0xB0AF7, size: 0x8, addend: 0x0, symName: __ZNSt3__111basic_regexIcNS_12regex_traitsIcEEE24__parse_character_escapeIPKcEET_S7_S7_PNS_12basic_stringIcNS_11char_traitsIcEENS_9allocatorIcEEEE, symObjAddr: 0x7540, symBinAddr: 0x1000144E0, symSize: 0x400 }
  - { offset: 0xB0F24, size: 0x8, addend: 0x0, symName: __ZNSt3__111basic_regexIcNS_12regex_traitsIcEEE25__parse_pattern_characterIPKcEET_S7_S7_, symObjAddr: 0x6F60, symBinAddr: 0x100013F70, symSize: 0x1B0 }
  - { offset: 0xB10E7, size: 0x8, addend: 0x0, symName: __ZNSt3__111basic_regexIcNS_12regex_traitsIcEEE11__push_loopEmmPNS_16__owns_one_stateIcEEmmb, symObjAddr: 0xC300, symBinAddr: 0x100018C10, symSize: 0x140 }
  - { offset: 0xB16C8, size: 0x8, addend: 0x0, symName: __ZNKSt3__120__l_anchor_multilineIcE6__execERNS_7__stateIcEE, symObjAddr: 0x58D0, symBinAddr: 0x100012950, symSize: 0x50 }
  - { offset: 0xB1712, size: 0x8, addend: 0x0, symName: __ZNKSt3__120__r_anchor_multilineIcE6__execERNS_7__stateIcEE, symObjAddr: 0x5990, symBinAddr: 0x1000129A0, symSize: 0x50 }
  - { offset: 0xB1779, size: 0x8, addend: 0x0, symName: __ZNSt3__115__word_boundaryIcNS_12regex_traitsIcEEED1Ev, symObjAddr: 0x59E0, symBinAddr: 0x1000129F0, symSize: 0x50 }
  - { offset: 0xB183C, size: 0x8, addend: 0x0, symName: __ZNSt3__115__word_boundaryIcNS_12regex_traitsIcEEED0Ev, symObjAddr: 0x5A30, symBinAddr: 0x100012A40, symSize: 0x50 }
  - { offset: 0xB1980, size: 0x8, addend: 0x0, symName: __ZNKSt3__115__word_boundaryIcNS_12regex_traitsIcEEE6__execERNS_7__stateIcEE, symObjAddr: 0x5A80, symBinAddr: 0x100012A90, symSize: 0xE0 }
  - { offset: 0xB1B64, size: 0x8, addend: 0x0, symName: __ZNSt3__111__lookaheadIcNS_12regex_traitsIcEEED1Ev, symObjAddr: 0x5B60, symBinAddr: 0x100012B70, symSize: 0x90 }
  - { offset: 0xB1D08, size: 0x8, addend: 0x0, symName: __ZNSt3__111__lookaheadIcNS_12regex_traitsIcEEED0Ev, symObjAddr: 0x5BF0, symBinAddr: 0x100012C00, symSize: 0x90 }
  - { offset: 0xB218F, size: 0x8, addend: 0x0, symName: __ZNKSt3__111__lookaheadIcNS_12regex_traitsIcEEE6__execERNS_7__stateIcEE, symObjAddr: 0x5C80, symBinAddr: 0x100012C90, symSize: 0x1A0 }
  - { offset: 0xB2716, size: 0x8, addend: 0x0, symName: __ZNSt3__16vectorINS_9sub_matchIPKcEENS_9allocatorIS4_EEE6assignEmRKS4_, symObjAddr: 0x6300, symBinAddr: 0x100013310, symSize: 0x230 }
  - { offset: 0xB2D33, size: 0x8, addend: 0x0, symName: __ZNKSt3__111basic_regexIcNS_12regex_traitsIcEEE21__match_at_start_ecmaINS_9allocatorINS_9sub_matchIPKcEEEEEEbS8_S8_RNS_13match_resultsIS8_T_EENS_15regex_constants15match_flag_typeEb, symObjAddr: 0x5E20, symBinAddr: 0x100012E30, symSize: 0x4E0 }
  - { offset: 0xB4579, size: 0x8, addend: 0x0, symName: __ZNSt3__16vectorINS_7__stateIcEENS_9allocatorIS2_EEE21__push_back_slow_pathIS2_EEPS2_OT_, symObjAddr: 0x66A0, symBinAddr: 0x1000136B0, symSize: 0x240 }
  - { offset: 0xB4E8F, size: 0x8, addend: 0x0, symName: __ZNSt3__16vectorINS_9sub_matchIPKcEENS_9allocatorIS4_EEE8__appendEmRKS4_, symObjAddr: 0x68F0, symBinAddr: 0x100013900, symSize: 0x1C0 }
  - { offset: 0xB5419, size: 0x8, addend: 0x0, symName: __ZNSt3__16vectorINS_4pairImPKcEENS_9allocatorIS4_EEE8__appendEm, symObjAddr: 0x6AB0, symBinAddr: 0x100013AC0, symSize: 0x150 }
  - { offset: 0xB597B, size: 0x8, addend: 0x0, symName: __ZNSt3__17__stateIcEC2ERKS1_, symObjAddr: 0x6C10, symBinAddr: 0x100013C20, symSize: 0x1C0 }
  - { offset: 0xB5FB0, size: 0x8, addend: 0x0, symName: __ZNSt3__17__stateIcED1Ev, symObjAddr: 0x6540, symBinAddr: 0x100013550, symSize: 0x40 }
  - { offset: 0xB6237, size: 0x8, addend: 0x0, symName: __ZNSt3__16vectorINS_7__stateIcEENS_9allocatorIS2_EEED1B8ne180100Ev, symObjAddr: 0x6620, symBinAddr: 0x100013630, symSize: 0x80 }
  - { offset: 0xB6911, size: 0x8, addend: 0x0, symName: __ZNKSt3__16vectorINS_9sub_matchIPKcEENS_9allocatorIS4_EEE20__throw_length_errorB8ne180100Ev, symObjAddr: 0x6530, symBinAddr: 0x100013540, symSize: 0x10 }
  - { offset: 0xB693B, size: 0x8, addend: 0x0, symName: __ZNSt3__17__stateIcED1Ev, symObjAddr: 0x6540, symBinAddr: 0x100013550, symSize: 0x40 }
  - { offset: 0xB6B76, size: 0x8, addend: 0x0, symName: __ZNKSt3__16vectorINS_7__stateIcEENS_9allocatorIS2_EEE20__throw_length_errorB8ne180100Ev, symObjAddr: 0x68E0, symBinAddr: 0x1000138F0, symSize: 0x10 }
  - { offset: 0xB6BA0, size: 0x8, addend: 0x0, symName: __ZNSt3__16vectorINS_9sub_matchIPKcEENS_9allocatorIS4_EEE8__appendEmRKS4_, symObjAddr: 0x68F0, symBinAddr: 0x100013900, symSize: 0x1C0 }
  - { offset: 0xB71E2, size: 0x8, addend: 0x0, symName: __ZNKSt3__16vectorINS_4pairImPKcEENS_9allocatorIS4_EEE20__throw_length_errorB8ne180100Ev, symObjAddr: 0x6C00, symBinAddr: 0x100013C10, symSize: 0x10 }
  - { offset: 0xB720C, size: 0x8, addend: 0x0, symName: __ZNSt3__17__stateIcEC2ERKS1_, symObjAddr: 0x6C10, symBinAddr: 0x100013C20, symSize: 0x1C0 }
  - { offset: 0xB76D4, size: 0x8, addend: 0x0, symName: __ZNSt3__120__bracket_expressionIcNS_12regex_traitsIcEEEC2B8ne180100ERKS2_PNS_6__nodeIcEEbbb, symObjAddr: 0x8840, symBinAddr: 0x100015700, symSize: 0x1A0 }
  - { offset: 0xB7DF4, size: 0x8, addend: 0x0, symName: __ZNSt3__120__bracket_expressionIcNS_12regex_traitsIcEEE10__add_charB8ne180100Ec, symObjAddr: 0x81C0, symBinAddr: 0x100015080, symSize: 0x680 }
  - { offset: 0xB8A2F, size: 0x8, addend: 0x0, symName: __ZNSt3__111basic_regexIcNS_12regex_traitsIcEEE23__parse_expression_termIPKcEET_S7_S7_PNS_20__bracket_expressionIcS2_EE, symObjAddr: 0x9C50, symBinAddr: 0x100016B10, symSize: 0x470 }
  - { offset: 0xB9B02, size: 0x8, addend: 0x0, symName: __ZNSt3__111basic_regexIcNS_12regex_traitsIcEEE11__push_charEc, symObjAddr: 0x7940, symBinAddr: 0x1000148E0, symSize: 0x140 }
  - { offset: 0xB9E9F, size: 0x8, addend: 0x0, symName: __ZNSt3__111basic_regexIcNS_12regex_traitsIcEEE15__push_back_refEi, symObjAddr: 0x7AD0, symBinAddr: 0x100014A70, symSize: 0xD0 }
  - { offset: 0xBA518, size: 0x8, addend: 0x0, symName: __ZNSt3__118__match_char_icaseIcNS_12regex_traitsIcEEED1Ev, symObjAddr: 0x7BA0, symBinAddr: 0x100014B40, symSize: 0x50 }
  - { offset: 0xBA5DB, size: 0x8, addend: 0x0, symName: __ZNSt3__118__match_char_icaseIcNS_12regex_traitsIcEEED0Ev, symObjAddr: 0x7BF0, symBinAddr: 0x100014B90, symSize: 0x50 }
  - { offset: 0xBA6A5, size: 0x8, addend: 0x0, symName: __ZNKSt3__118__match_char_icaseIcNS_12regex_traitsIcEEE6__execERNS_7__stateIcEE, symObjAddr: 0x7C40, symBinAddr: 0x100014BE0, symSize: 0x50 }
  - { offset: 0xBA75F, size: 0x8, addend: 0x0, symName: __ZNSt3__120__match_char_collateIcNS_12regex_traitsIcEEED1Ev, symObjAddr: 0x7C90, symBinAddr: 0x100014C30, symSize: 0x50 }
  - { offset: 0xBA822, size: 0x8, addend: 0x0, symName: __ZNSt3__120__match_char_collateIcNS_12regex_traitsIcEEED0Ev, symObjAddr: 0x7CE0, symBinAddr: 0x100014C80, symSize: 0x50 }
  - { offset: 0xBA8EC, size: 0x8, addend: 0x0, symName: __ZNKSt3__120__match_char_collateIcNS_12regex_traitsIcEEE6__execERNS_7__stateIcEE, symObjAddr: 0x7D30, symBinAddr: 0x100014CD0, symSize: 0x40 }
  - { offset: 0xBA93F, size: 0x8, addend: 0x0, symName: __ZNKSt3__112__match_charIcE6__execERNS_7__stateIcEE, symObjAddr: 0x7DE0, symBinAddr: 0x100014D10, symSize: 0x40 }
  - { offset: 0xBA9AF, size: 0x8, addend: 0x0, symName: __ZNSt3__116__back_ref_icaseIcNS_12regex_traitsIcEEED1Ev, symObjAddr: 0x7E20, symBinAddr: 0x100014D50, symSize: 0x50 }
  - { offset: 0xBAA72, size: 0x8, addend: 0x0, symName: __ZNSt3__116__back_ref_icaseIcNS_12regex_traitsIcEEED0Ev, symObjAddr: 0x7E70, symBinAddr: 0x100014DA0, symSize: 0x50 }
  - { offset: 0xBAB3C, size: 0x8, addend: 0x0, symName: __ZNKSt3__116__back_ref_icaseIcNS_12regex_traitsIcEEE6__execERNS_7__stateIcEE, symObjAddr: 0x7EC0, symBinAddr: 0x100014DF0, symSize: 0xD0 }
  - { offset: 0xBACA9, size: 0x8, addend: 0x0, symName: __ZNSt3__118__back_ref_collateIcNS_12regex_traitsIcEEED1Ev, symObjAddr: 0x7F90, symBinAddr: 0x100014EC0, symSize: 0x50 }
  - { offset: 0xBAD6C, size: 0x8, addend: 0x0, symName: __ZNSt3__118__back_ref_collateIcNS_12regex_traitsIcEEED0Ev, symObjAddr: 0x7FE0, symBinAddr: 0x100014F10, symSize: 0x50 }
  - { offset: 0xBAE36, size: 0x8, addend: 0x0, symName: __ZNKSt3__118__back_ref_collateIcNS_12regex_traitsIcEEE6__execERNS_7__stateIcEE, symObjAddr: 0x8030, symBinAddr: 0x100014F60, symSize: 0x80 }
  - { offset: 0xBAEF9, size: 0x8, addend: 0x0, symName: __ZNKSt3__110__back_refIcE6__execERNS_7__stateIcEE, symObjAddr: 0x8120, symBinAddr: 0x100014FE0, symSize: 0xA0 }
  - { offset: 0xBB4FB, size: 0x8, addend: 0x0, symName: __ZNKSt3__16vectorIcNS_9allocatorIcEEE20__throw_length_errorB8ne180100Ev, symObjAddr: 0x9BF0, symBinAddr: 0x100016AB0, symSize: 0x10 }
  - { offset: 0xBB525, size: 0x8, addend: 0x0, symName: __ZNSt3__119__throw_regex_errorB8ne180100ILNS_15regex_constants10error_typeE5EEEvv, symObjAddr: 0x9C00, symBinAddr: 0x100016AC0, symSize: 0x50 }
  - { offset: 0xBB706, size: 0x8, addend: 0x0, symName: __ZNSt3__16vectorINS_4pairINS_12basic_stringIcNS_11char_traitsIcEENS_9allocatorIcEEEES7_EENS5_IS8_EEED1B8ne180100Ev, symObjAddr: 0x89E0, symBinAddr: 0x1000158A0, symSize: 0x80 }
  - { offset: 0xBBC1A, size: 0x8, addend: 0x0, symName: __ZNSt3__120__bracket_expressionIcNS_12regex_traitsIcEEED1Ev, symObjAddr: 0x8A60, symBinAddr: 0x100015920, symSize: 0x10 }
  - { offset: 0xBBC50, size: 0x8, addend: 0x0, symName: __ZNSt3__120__bracket_expressionIcNS_12regex_traitsIcEEED2Ev, symObjAddr: 0x95E0, symBinAddr: 0x1000164A0, symSize: 0x140 }
  - { offset: 0xBC6B6, size: 0x8, addend: 0x0, symName: __ZNSt3__120__bracket_expressionIcNS_12regex_traitsIcEEED0Ev, symObjAddr: 0x8A70, symBinAddr: 0x100015930, symSize: 0x20 }
  - { offset: 0xBCAF9, size: 0x8, addend: 0x0, symName: __ZNKSt3__120__bracket_expressionIcNS_12regex_traitsIcEEE6__execERNS_7__stateIcEE, symObjAddr: 0x8A90, symBinAddr: 0x100015950, symSize: 0xB10 }
  - { offset: 0xBE69B, size: 0x8, addend: 0x0, symName: __ZNKSt3__112regex_traitsIcE20__lookup_collatenameIPcEENS_12basic_stringIcNS_11char_traitsIcEENS_9allocatorIcEEEET_SA_c, symObjAddr: 0x9840, symBinAddr: 0x100016700, symSize: 0x230 }
  - { offset: 0xBF2B3, size: 0x8, addend: 0x0, symName: __ZNKSt3__112regex_traitsIcE9transformIPcEENS_12basic_stringIcNS_11char_traitsIcEENS_9allocatorIcEEEET_SA_, symObjAddr: 0x9720, symBinAddr: 0x1000165E0, symSize: 0x120 }
  - { offset: 0xBF8DA, size: 0x8, addend: 0x0, symName: __ZNKSt3__112regex_traitsIcE19__transform_primaryIPcEENS_12basic_stringIcNS_11char_traitsIcEENS_9allocatorIcEEEET_SA_c, symObjAddr: 0x9A70, symBinAddr: 0x100016930, symSize: 0x180 }
  - { offset: 0xC004C, size: 0x8, addend: 0x0, symName: __ZNSt3__14pairINS_12basic_stringIcNS_11char_traitsIcEENS_9allocatorIcEEEES6_ED1Ev, symObjAddr: 0x95A0, symBinAddr: 0x100016460, symSize: 0x40 }
  - { offset: 0xC0440, size: 0x8, addend: 0x0, symName: __ZNSt3__111basic_regexIcNS_12regex_traitsIcEEE25__parse_equivalence_classIPKcEET_S7_S7_PNS_20__bracket_expressionIcS2_EE, symObjAddr: 0xA0C0, symBinAddr: 0x100016F80, symSize: 0x250 }
  - { offset: 0xC0FA4, size: 0x8, addend: 0x0, symName: __ZNSt3__111basic_regexIcNS_12regex_traitsIcEEE18__parse_awk_escapeIPKcEET_S7_S7_PNS_12basic_stringIcNS_11char_traitsIcEENS_9allocatorIcEEEE, symObjAddr: 0xA570, symBinAddr: 0x100017430, symSize: 0x310 }
  - { offset: 0xC10CB, size: 0x8, addend: 0x0, symName: __ZNSt3__111basic_regexIcNS_12regex_traitsIcEEE24__parse_collating_symbolIPKcEET_S7_S7_RNS_12basic_stringIcNS_11char_traitsIcEENS_9allocatorIcEEEE, symObjAddr: 0xA310, symBinAddr: 0x1000171D0, symSize: 0xD0 }
  - { offset: 0xC14C4, size: 0x8, addend: 0x0, symName: __ZNKSt3__112regex_traitsIcE18__lookup_classnameIPKcEEjT_S5_bc, symObjAddr: 0xB6A0, symBinAddr: 0x1000181B0, symSize: 0x130 }
  - { offset: 0xC1BBB, size: 0x8, addend: 0x0, symName: __ZNSt3__120__bracket_expressionIcNS_12regex_traitsIcEEE13__add_digraphB8ne180100Ecc, symObjAddr: 0xAD70, symBinAddr: 0x100017C30, symSize: 0x4E0 }
  - { offset: 0xC2959, size: 0x8, addend: 0x0, symName: __ZNSt3__111basic_regexIcNS_12regex_traitsIcEEE20__parse_class_escapeIPKcEET_S7_S7_RNS_12basic_stringIcNS_11char_traitsIcEENS_9allocatorIcEEEEPNS_20__bracket_expressionIcS2_EE, symObjAddr: 0xA3E0, symBinAddr: 0x1000172A0, symSize: 0x190 }
  - { offset: 0xC2AE9, size: 0x8, addend: 0x0, symName: __ZNSt3__120__bracket_expressionIcNS_12regex_traitsIcEEE11__add_rangeB8ne180100ENS_12basic_stringIcNS_11char_traitsIcEENS_9allocatorIcEEEES9_, symObjAddr: 0xA880, symBinAddr: 0x100017740, symSize: 0x4F0 }
  - { offset: 0xC4F73, size: 0x8, addend: 0x0, symName: __ZNSt3__120__bracket_expressionIcNS_12regex_traitsIcEEE14__add_neg_charB8ne180100Ec, symObjAddr: 0xB7D0, symBinAddr: 0x1000182E0, symSize: 0x680 }
  - { offset: 0xC6181, size: 0x8, addend: 0x0, symName: __ZNSt3__16vectorINS_4pairINS_12basic_stringIcNS_11char_traitsIcEENS_9allocatorIcEEEES7_EENS5_IS8_EEE21__push_back_slow_pathIS8_EEPS8_OT_, symObjAddr: 0xBFC0, symBinAddr: 0x1000189B0, symSize: 0x1E0 }
  - { offset: 0xC6CEC, size: 0x8, addend: 0x0, symName: __ZNKSt3__16vectorINS_4pairIccEENS_9allocatorIS2_EEE20__throw_length_errorB8ne180100Ev, symObjAddr: 0xC1B0, symBinAddr: 0x100018BA0, symSize: 0x10 }
  - { offset: 0xC71EF, size: 0x8, addend: 0x0, symName: __ZNKSt3__16vectorINS_4pairINS_12basic_stringIcNS_11char_traitsIcEENS_9allocatorIcEEEES7_EENS5_IS8_EEE20__throw_length_errorB8ne180100Ev, symObjAddr: 0xC1A0, symBinAddr: 0x100018B90, symSize: 0x10 }
  - { offset: 0xC7219, size: 0x8, addend: 0x0, symName: __ZNKSt3__16vectorINS_4pairIccEENS_9allocatorIS2_EEE20__throw_length_errorB8ne180100Ev, symObjAddr: 0xC1B0, symBinAddr: 0x100018BA0, symSize: 0x10 }
  - { offset: 0xC7224, size: 0x8, addend: 0x0, symName: __ZNKSt3__128__begin_marked_subexpressionIcE6__execERNS_7__stateIcEE, symObjAddr: 0xC230, symBinAddr: 0x100018BB0, symSize: 0x30 }
  - { offset: 0xC729D, size: 0x8, addend: 0x0, symName: __ZNKSt3__126__end_marked_subexpressionIcE6__execERNS_7__stateIcEE, symObjAddr: 0xC2D0, symBinAddr: 0x100018BE0, symSize: 0x30 }
  - { offset: 0xC75CC, size: 0x8, addend: 0x0, symName: __ZNSt3__16__loopIcED0Ev, symObjAddr: 0xC530, symBinAddr: 0x100018E40, symSize: 0x60 }
  - { offset: 0xC76BD, size: 0x8, addend: 0x0, symName: __ZNSt3__16__loopIcED1Ev, symObjAddr: 0xC4E0, symBinAddr: 0x100018DF0, symSize: 0x50 }
  - { offset: 0xC77E6, size: 0x8, addend: 0x0, symName: __ZNKSt3__16__loopIcE6__execERNS_7__stateIcEE, symObjAddr: 0xC590, symBinAddr: 0x100018EA0, symSize: 0x1D0 }
  - { offset: 0xC7981, size: 0x8, addend: 0x0, symName: __ZNKSt3__16__loopIcE12__exec_splitEbRNS_7__stateIcEE, symObjAddr: 0xC760, symBinAddr: 0x100019070, symSize: 0xC0 }
  - { offset: 0xC7A86, size: 0x8, addend: 0x0, symName: __ZNSt3__117__owns_two_statesIcED1Ev, symObjAddr: 0xC820, symBinAddr: 0x100019130, symSize: 0x50 }
  - { offset: 0xC7B19, size: 0x8, addend: 0x0, symName: __ZNSt3__117__owns_two_statesIcED0Ev, symObjAddr: 0xC870, symBinAddr: 0x100019180, symSize: 0x60 }
  - { offset: 0xC7BB3, size: 0x8, addend: 0x0, symName: __ZNKSt3__117__repeat_one_loopIcE6__execERNS_7__stateIcEE, symObjAddr: 0xC8F0, symBinAddr: 0x1000191E0, symSize: 0x20 }
  - { offset: 0xC7C06, size: 0x8, addend: 0x0, symName: __ZNKSt3__111__alternateIcE6__execERNS_7__stateIcEE, symObjAddr: 0xC9C0, symBinAddr: 0x100019200, symSize: 0x10 }
  - { offset: 0xC7C3C, size: 0x8, addend: 0x0, symName: __ZNKSt3__111__alternateIcE12__exec_splitEbRNS_7__stateIcEE, symObjAddr: 0xC9D0, symBinAddr: 0x100019210, symSize: 0x20 }
  - { offset: 0xC7C8D, size: 0x8, addend: 0x0, symName: __ZNKSt3__121__empty_non_own_stateIcE6__execERNS_7__stateIcEE, symObjAddr: 0xCA10, symBinAddr: 0x100019230, symSize: 0x20 }
  - { offset: 0xC7DE5, size: 0x8, addend: 0x0, symName: __ZNSt3__111basic_regexIcNS_12regex_traitsIcEEE32__parse_one_char_or_coll_elem_REIPKcEET_S7_S7_, symObjAddr: 0xCE80, symBinAddr: 0x1000196A0, symSize: 0xF0 }
  - { offset: 0xC819B, size: 0x8, addend: 0x0, symName: __ZNKSt3__111__match_anyIcE6__execERNS_7__stateIcEE, symObjAddr: 0xCFE0, symBinAddr: 0x100019790, symSize: 0x40 }
  - { offset: 0xC81EE, size: 0x8, addend: 0x0, symName: __ZNSt3__111basic_regexIcNS_12regex_traitsIcEEE15__test_back_refEc, symObjAddr: 0xD020, symBinAddr: 0x1000197D0, symSize: 0x40 }
  - { offset: 0xC8317, size: 0x8, addend: 0x0, symName: __ZNSt3__111basic_regexIcNS_12regex_traitsIcEEE20__parse_ORD_CHAR_EREIPKcEET_S7_S7_, symObjAddr: 0xD2C0, symBinAddr: 0x100019A70, symSize: 0x1B0 }
  - { offset: 0xC8377, size: 0x8, addend: 0x0, symName: __ZNSt3__111basic_regexIcNS_12regex_traitsIcEEE23__parse_QUOTED_CHAR_EREIPKcEET_S7_S7_, symObjAddr: 0xD470, symBinAddr: 0x100019C20, symSize: 0x1F0 }
  - { offset: 0xC848C, size: 0x8, addend: 0x0, symName: __ZNKSt3__111basic_regexIcNS_12regex_traitsIcEEE8__searchINS_9allocatorINS_9sub_matchIPKcEEEEEEbS8_S8_RNS_13match_resultsIS8_T_EENS_15regex_constants15match_flag_typeE, symObjAddr: 0xD780, symBinAddr: 0x100019F30, symSize: 0x330 }
  - { offset: 0xC8A17, size: 0x8, addend: 0x0, symName: __ZNSt3__113match_resultsINS_11__wrap_iterIPKcEENS_9allocatorINS_9sub_matchIS4_EEEEE8__assignB8ne180100IS3_NS5_INS6_IS3_EEEEEEvS4_S4_RKNS0_IT_T0_EEb, symObjAddr: 0xDAB0, symBinAddr: 0x10001A260, symSize: 0x1C0 }
  - { offset: 0xC9218, size: 0x8, addend: 0x0, symName: __ZNKSt3__111basic_regexIcNS_12regex_traitsIcEEE27__match_at_start_posix_subsINS_9allocatorINS_9sub_matchIPKcEEEEEEbS8_S8_RNS_13match_resultsIS8_T_EENS_15regex_constants15match_flag_typeEb, symObjAddr: 0xE6A0, symBinAddr: 0x10001AE50, symSize: 0x6C0 }
  - { offset: 0xCB21A, size: 0x8, addend: 0x0, symName: __ZNKSt3__111basic_regexIcNS_12regex_traitsIcEEE29__match_at_start_posix_nosubsINS_9allocatorINS_9sub_matchIPKcEEEEEEbS8_S8_RNS_13match_resultsIS8_T_EENS_15regex_constants15match_flag_typeEb, symObjAddr: 0xDC70, symBinAddr: 0x10001A420, symSize: 0xA30 }
  - { offset: 0xCD160, size: 0x8, addend: 0x0, symName: __ZNSt3__16vectorINS_9sub_matchINS_11__wrap_iterIPKcEEEENS_9allocatorIS6_EEE8__appendEm, symObjAddr: 0x10380, symBinAddr: 0x10001C790, symSize: 0x1C0 }
  - { offset: 0xCDBB1, size: 0x8, addend: 0x0, symName: __ZNSt3__15dequeINS_7__stateIcEENS_9allocatorIS2_EEE19__add_back_capacityEv, symObjAddr: 0xEF20, symBinAddr: 0x10001B6D0, symSize: 0x560 }
  - { offset: 0xCEC55, size: 0x8, addend: 0x0, symName: __ZNSt3__15dequeINS_7__stateIcEENS_9allocatorIS2_EEE20__add_front_capacityEv, symObjAddr: 0xFA00, symBinAddr: 0x10001BFE0, symSize: 0x400 }
  - { offset: 0xCFA81, size: 0x8, addend: 0x0, symName: __ZNSt3__15dequeINS_7__stateIcEENS_9allocatorIS2_EEED1B8ne180100Ev, symObjAddr: 0xEEB0, symBinAddr: 0x10001B660, symSize: 0x70 }
  - { offset: 0xCFE18, size: 0x8, addend: 0x0, symName: __ZNSt3__16vectorINS_9sub_matchIPKcEENS_9allocatorIS4_EEE18__assign_with_sizeB8ne180100IPS4_S9_EEvT_T0_l, symObjAddr: 0xFFD0, symBinAddr: 0x10001C3E0, symSize: 0x1F0 }
  - { offset: 0xD06DC, size: 0x8, addend: 0x0, symName: __ZNSt3__16vectorINS_4pairImPKcEENS_9allocatorIS4_EEE18__assign_with_sizeB8ne180100IPS4_S9_EEvT_T0_l, symObjAddr: 0x101C0, symBinAddr: 0x10001C5D0, symSize: 0x1C0 }
  - { offset: 0xD0F25, size: 0x8, addend: 0x0, symName: __ZNSt3__15dequeINS_7__stateIcEENS_9allocatorIS2_EEE5clearEv, symObjAddr: 0xED60, symBinAddr: 0x10001B510, symSize: 0x150 }
  - { offset: 0xD1A7C, size: 0x8, addend: 0x0, symName: __ZNSt3__114__split_bufferIPNS_7__stateIcEENS_9allocatorIS3_EEE9push_backEOS3_, symObjAddr: 0xF480, symBinAddr: 0x10001BC30, symSize: 0x1E0 }
  - { offset: 0xD1F17, size: 0x8, addend: 0x0, symName: __ZNSt3__114__split_bufferIPNS_7__stateIcEENS_9allocatorIS3_EEE10push_frontEOS3_, symObjAddr: 0xF660, symBinAddr: 0x10001BE10, symSize: 0x1D0 }
  - { offset: 0xD2EBB, size: 0x8, addend: 0x0, symName: __ZNKSt3__19sub_matchINS_11__wrap_iterIPKcEEE7compareB8ne180100ERKS5_, symObjAddr: 0x10550, symBinAddr: 0x10001C960, symSize: 0x400 }
  - { offset: 0xD3D84, size: 0x8, addend: 0x0, symName: __ZNKSt3__16vectorINS_12basic_stringIcNS_11char_traitsIcEENS_9allocatorIcEEEENS4_IS6_EEE20__throw_length_errorB8ne180100Ev, symObjAddr: 0x10C80, symBinAddr: 0x10001D090, symSize: 0x10 }
  - { offset: 0xD3DAE, size: 0x8, addend: 0x0, symName: __ZNSt3__114regex_iteratorINS_11__wrap_iterIPKcEEcNS_12regex_traitsIcEEEppEv, symObjAddr: 0x10C90, symBinAddr: 0x10001D0A0, symSize: 0x230 }
  - { offset: 0xD3DB9, size: 0x8, addend: 0x0, symName: __ZNSt3__114__split_bufferINS_12basic_stringIcNS_11char_traitsIcEENS_9allocatorIcEEEERNS4_IS6_EEED1Ev, symObjAddr: 0x10C20, symBinAddr: 0x10001D030, symSize: 0x60 }
...
